; Function Attrs: nounwind sspstrong uwtable
define dso_local void @rb_mark_set(ptr noundef %0) local_unnamed_addr #0 {
  %.not = icmp eq ptr %0, null
  br i1 %.not, label %8, label %2

2:                                                ; preds = %1
  %3 = load ptr, ptr @ruby_current_vm_ptr, align 8, !tbaa !62
  %4 = getelementptr inbounds nuw i8, ptr %3, i64 1296
  %5 = load ptr, ptr %4, align 8, !tbaa !63
  %6 = ptrtoint ptr %5 to i64
  %7 = tail call i32 @rb_st_foreach(ptr noundef nonnull %0, ptr noundef nonnull @mark_key, i64 noundef %6) #7
  br label %8

8:                                                ; preds = %1, %2
  ret void
}